target datalayout = "e-m:e-p270:32:32-p271:32:32-p272:64:64-i64:64-i128:128-f80:128-n8:16:32:64-S128"
target triple = "x86_64-pc-linux-gnu"

%struct.auth_credential_t = type { i32, i32, ptr, i8, %struct.in_addr, i8, i32, i32, ptr, i32 }
%struct.in_addr = type { i32 }

@plugin_type = dso_local constant [11 x i8] c"auth/munge\00", align 1
@.str.4 = private unnamed_addr constant [25 x i8] c"munge_ctx_create failure\00", align 1
@.str.10 = private unnamed_addr constant [47 x i8] c"If munged is up, restart with --num-threads=10\00", align 1
@.str.18 = private unnamed_addr constant [22 x i8] c"munge_ctx_set failure\00", align 1
@.str.19 = private unnamed_addr constant [47 x i8] c"%s: %s: Munge decode failed: %s (retrying ...)\00", align 1
@__func__._decode_cred = private unnamed_addr constant [13 x i8] c"_decode_cred\00", align 1
@.str.20 = private unnamed_addr constant [24 x i8] c"Munge decode failed: %s\00", align 1
@.str.21 = private unnamed_addr constant [29 x i8] c"Check for out of sync clocks\00", align 1
@.str.22 = private unnamed_addr constant [40 x i8] c"auth_munge: Unable to retrieve addr: %s\00", align 1
@.str.23 = private unnamed_addr constant [43 x i8] c"%s: %s: Unable to retrieve encode time: %s\00", align 1
@__func__._print_cred = private unnamed_addr constant [12 x i8] c"_print_cred\00", align 1
@.str.24 = private unnamed_addr constant [20 x i8] c"%s: %s: ENCODED: %s\00", align 1
@.str.25 = private unnamed_addr constant [43 x i8] c"%s: %s: Unable to retrieve decode time: %s\00", align 1
@.str.26 = private unnamed_addr constant [20 x i8] c"%s: %s: DECODED: %s\00", align 1

; Function Attrs: nounwind uwtable
define internal void @_print_cred(ptr noundef %0) #0 {
  %2 = alloca ptr, align 8
  %3 = alloca i32, align 4
  %4 = alloca [256 x i8], align 16
  %5 = alloca i64, align 8
  %6 = alloca i64, align 8
  store ptr %0, ptr %2, align 8
  call void @llvm.lifetime.start.p0(i64 4, ptr %3) #9
  call void @llvm.lifetime.start.p0(i64 256, ptr %4) #9
  call void @llvm.lifetime.start.p0(i64 8, ptr %5) #9
  call void @llvm.lifetime.start.p0(i64 8, ptr %6) #9
  %7 = load ptr, ptr %2, align 8
  %8 = call i32 (ptr, i32, ...) @munge_ctx_get(ptr noundef %7, i32 noundef 6, ptr noundef %5)
  store i32 %8, ptr %3, align 4
  %9 = load i32, ptr %3, align 4
  %10 = icmp ne i32 %9, 0
  br i1 %10, label %11, label %24

11:                                               ; preds = %1
  br label %12

12:                                               ; preds = %11
  br label %13

13:                                               ; preds = %12
  %14 = call i32 @slurm_get_log_level()
  %15 = icmp sge i32 %14, 5
  br i1 %15, label %16, label %19

16:                                               ; preds = %13
  %17 = load ptr, ptr %2, align 8
  %18 = call ptr @munge_ctx_strerror(ptr noundef %17)
  call void (i32, ptr, ...) @slurm_log_var(i32 noundef 5, ptr noundef @.str.23, ptr noundef @plugin_type, ptr noundef @__func__._print_cred, ptr noundef %18)
  br label %19

19:                                               ; preds = %16, %13
  br label %20

20:                                               ; preds = %19
  br label %21

21:                                               ; preds = %20
  br label %22

22:                                               ; preds = %21
  br label %23

23:                                               ; preds = %22
  br label %37

24:                                               ; preds = %1
  br label %25

25:                                               ; preds = %24
  br label %26

26:                                               ; preds = %25
  %27 = call i32 @slurm_get_log_level()
  %28 = icmp sge i32 %27, 3
  br i1 %28, label %29, label %32

29:                                               ; preds = %26
  %30 = getelementptr inbounds [256 x i8], ptr %4, i64 0, i64 0
  %31 = call ptr @slurm_ctime2_r(ptr noundef %5, ptr noundef %30)
  call void (i32, ptr, ...) @slurm_log_var(i32 noundef 3, ptr noundef @.str.24, ptr noundef @plugin_type, ptr noundef @__func__._print_cred, ptr noundef %31)
  br label %32

32:                                               ; preds = %29, %26
  br label %33

33:                                               ; preds = %32
  br label %34

34:                                               ; preds = %33
  br label %35

35:                                               ; preds = %34
  br label %36

36:                                               ; preds = %35
  br label %37

37:                                               ; preds = %36, %23
  %38 = load ptr, ptr %2, align 8
  %39 = call i32 (ptr, i32, ...) @munge_ctx_get(ptr noundef %38, i32 noundef 7, ptr noundef %6)
  store i32 %39, ptr %3, align 4
  %40 = load i32, ptr %3, align 4
  %41 = icmp ne i32 %40, 0
  br i1 %41, label %42, label %55

42:                                               ; preds = %37
  br label %43

43:                                               ; preds = %42
  br label %44

44:                                               ; preds = %43
  %45 = call i32 @slurm_get_log_level()
  %46 = icmp sge i32 %45, 5
  br i1 %46, label %47, label %50

47:                                               ; preds = %44
  %48 = load ptr, ptr %2, align 8
  %49 = call ptr @munge_ctx_strerror(ptr noundef %48)
  call void (i32, ptr, ...) @slurm_log_var(i32 noundef 5, ptr noundef @.str.25, ptr noundef @plugin_type, ptr noundef @__func__._print_cred, ptr noundef %49)
  br label %50

50:                                               ; preds = %47, %44
  br label %51

51:                                               ; preds = %50
  br label %52

52:                                               ; preds = %51
  br label %53

53:                                               ; preds = %52
  br label %54

54:                                               ; preds = %53
  br label %68

55:                                               ; preds = %37
  br label %56

56:                                               ; preds = %55
  br label %57

57:                                               ; preds = %56
  %58 = call i32 @slurm_get_log_level()
  %59 = icmp sge i32 %58, 3
  br i1 %59, label %60, label %63

60:                                               ; preds = %57
  %61 = getelementptr inbounds [256 x i8], ptr %4, i64 0, i64 0
  %62 = call ptr @slurm_ctime2_r(ptr noundef %6, ptr noundef %61)
  call void (i32, ptr, ...) @slurm_log_var(i32 noundef 3, ptr noundef @.str.26, ptr noundef @plugin_type, ptr noundef @__func__._print_cred, ptr noundef %62)
  br label %63

63:                                               ; preds = %60, %57
  br label %64

64:                                               ; preds = %63
  br label %65

65:                                               ; preds = %64
  br label %66

66:                                               ; preds = %65
  br label %67

67:                                               ; preds = %66
  br label %68

68:                                               ; preds = %67, %54
  call void @llvm.lifetime.end.p0(i64 8, ptr %6) #9
  call void @llvm.lifetime.end.p0(i64 8, ptr %5) #9
  call void @llvm.lifetime.end.p0(i64 256, ptr %4) #9
  call void @llvm.lifetime.end.p0(i64 4, ptr %3) #9
  ret void
}

; Function Attrs: nounwind uwtable
define internal i32 @_decode_cred(ptr noundef %0, ptr noundef %1, i1 noundef zeroext %2) #0 {
  %4 = alloca i32, align 4
  %5 = alloca ptr, align 8
  %6 = alloca ptr, align 8
  %7 = alloca i8, align 1
  %8 = alloca i32, align 4
  %9 = alloca i32, align 4
  %10 = alloca ptr, align 8
  %11 = alloca i32, align 4
  store ptr %0, ptr %5, align 8
  store ptr %1, ptr %6, align 8
  %12 = zext i1 %2 to i8
  store i8 %12, ptr %7, align 1
  call void @llvm.lifetime.start.p0(i64 4, ptr %8) #9
  store i32 20, ptr %8, align 4
  call void @llvm.lifetime.start.p0(i64 4, ptr %9) #9
  call void @llvm.lifetime.start.p0(i64 8, ptr %10) #9
  %13 = load ptr, ptr %5, align 8
  %14 = icmp eq ptr %13, null
  br i1 %14, label %15, label %16

15:                                               ; preds = %3
  store i32 -1, ptr %4, align 4
  store i32 1, ptr %11, align 4
  br label %128

16:                                               ; preds = %3
  %17 = load ptr, ptr %5, align 8
  %18 = getelementptr inbounds nuw %struct.auth_credential_t, ptr %17, i32 0, i32 5
  %19 = load i8, ptr %18, align 8, !range !8, !noundef !9
  %20 = trunc i8 %19 to i1
  br i1 %20, label %21, label %22

21:                                               ; preds = %16
  store i32 0, ptr %4, align 4
  store i32 1, ptr %11, align 4
  br label %128

22:                                               ; preds = %16
  %23 = call ptr @munge_ctx_create()
  store ptr %23, ptr %10, align 8
  %24 = icmp eq ptr %23, null
  br i1 %24, label %25, label %27

25:                                               ; preds = %22
  %26 = call i32 (ptr, ...) @slurm_error(ptr noundef @.str.4)
  store i32 -1, ptr %4, align 4
  store i32 1, ptr %11, align 4
  br label %128

27:                                               ; preds = %22
  %28 = load ptr, ptr %6, align 8
  %29 = icmp ne ptr %28, null
  br i1 %29, label %30, label %38

30:                                               ; preds = %27
  %31 = load ptr, ptr %10, align 8
  %32 = load ptr, ptr %6, align 8
  %33 = call i32 (ptr, i32, ...) @munge_ctx_set(ptr noundef %31, i32 noundef 8, ptr noundef %32)
  %34 = icmp ne i32 %33, 0
  br i1 %34, label %35, label %38

35:                                               ; preds = %30
  %36 = call i32 (ptr, ...) @slurm_error(ptr noundef @.str.18)
  %37 = load ptr, ptr %10, align 8
  call void @munge_ctx_destroy(ptr noundef %37)
  store i32 -1, ptr %4, align 4
  store i32 1, ptr %11, align 4
  br label %128

38:                                               ; preds = %30, %27
  br label %39

39:                                               ; preds = %78, %38
  %40 = load ptr, ptr %5, align 8
  %41 = getelementptr inbounds nuw %struct.auth_credential_t, ptr %40, i32 0, i32 2
  %42 = load ptr, ptr %41, align 8
  %43 = load ptr, ptr %10, align 8
  %44 = load ptr, ptr %5, align 8
  %45 = getelementptr inbounds nuw %struct.auth_credential_t, ptr %44, i32 0, i32 8
  %46 = load ptr, ptr %5, align 8
  %47 = getelementptr inbounds nuw %struct.auth_credential_t, ptr %46, i32 0, i32 9
  %48 = load ptr, ptr %5, align 8
  %49 = getelementptr inbounds nuw %struct.auth_credential_t, ptr %48, i32 0, i32 6
  %50 = load ptr, ptr %5, align 8
  %51 = getelementptr inbounds nuw %struct.auth_credential_t, ptr %50, i32 0, i32 7
  %52 = call i32 @munge_decode(ptr noundef %42, ptr noundef %43, ptr noundef %45, ptr noundef %47, ptr noundef %49, ptr noundef %51)
  store i32 %52, ptr %9, align 4
  %53 = load i32, ptr %9, align 4
  %54 = icmp ne i32 %53, 0
  br i1 %54, label %55, label %96

55:                                               ; preds = %39
  %56 = load i8, ptr %7, align 1, !range !8, !noundef !9
  %57 = trunc i8 %56 to i1
  br i1 %57, label %58, label %59

58:                                               ; preds = %55
  br label %123

59:                                               ; preds = %55
  %60 = load i32, ptr %9, align 4
  %61 = icmp eq i32 %60, 6
  br i1 %61, label %62, label %80

62:                                               ; preds = %59
  %63 = load i32, ptr %8, align 4
  %64 = add nsw i32 %63, -1
  store i32 %64, ptr %8, align 4
  %65 = icmp ne i32 %63, 0
  br i1 %65, label %66, label %80

66:                                               ; preds = %62
  br label %67

67:                                               ; preds = %66
  br label %68

68:                                               ; preds = %67
  %69 = call i32 @slurm_get_log_level()
  %70 = icmp sge i32 %69, 5
  br i1 %70, label %71, label %74

71:                                               ; preds = %68
  %72 = load ptr, ptr %10, align 8
  %73 = call ptr @munge_ctx_strerror(ptr noundef %72)
  call void (i32, ptr, ...) @slurm_log_var(i32 noundef 5, ptr noundef @.str.19, ptr noundef @plugin_type, ptr noundef @__func__._decode_cred, ptr noundef %73)
  br label %74

74:                                               ; preds = %71, %68
  br label %75

75:                                               ; preds = %74
  br label %76

76:                                               ; preds = %75
  br label %77

77:                                               ; preds = %76
  br label %78

78:                                               ; preds = %77
  %79 = call i32 @usleep(i32 noundef 100000)
  br label %39

80:                                               ; preds = %62, %59
  %81 = load i32, ptr %9, align 4
  %82 = icmp eq i32 %81, 6
  br i1 %82, label %83, label %85

83:                                               ; preds = %80
  %84 = call i32 (ptr, ...) @slurm_error(ptr noundef @.str.10)
  br label %85

85:                                               ; preds = %83, %80
  %86 = load ptr, ptr %10, align 8
  %87 = call ptr @munge_ctx_strerror(ptr noundef %86)
  %88 = call i32 (ptr, ...) @slurm_error(ptr noundef @.str.20, ptr noundef %87)
  %89 = load ptr, ptr %10, align 8
  call void @_print_cred(ptr noundef %89)
  %90 = load i32, ptr %9, align 4
  %91 = icmp eq i32 %90, 16
  br i1 %91, label %92, label %94

92:                                               ; preds = %85
  %93 = call i32 (ptr, ...) @slurm_error(ptr noundef @.str.21)
  br label %94

94:                                               ; preds = %92, %85
  %95 = call ptr @__errno_location() #11
  store i32 6000, ptr %95, align 4
  br label %123

96:                                               ; preds = %39
  %97 = load ptr, ptr %10, align 8
  %98 = load ptr, ptr %5, align 8
  %99 = getelementptr inbounds nuw %struct.auth_credential_t, ptr %98, i32 0, i32 4
  %100 = call i32 (ptr, i32, ...) @munge_ctx_get(ptr noundef %97, i32 noundef 5, ptr noundef %99)
  %101 = icmp ne i32 %100, 0
  br i1 %101, label %102, label %106

102:                                              ; preds = %96
  %103 = load ptr, ptr %10, align 8
  %104 = call ptr @munge_ctx_strerror(ptr noundef %103)
  %105 = call i32 (ptr, ...) @slurm_error(ptr noundef @.str.22, ptr noundef %104)
  br label %106

106:                                              ; preds = %102, %96
  %107 = load ptr, ptr %5, align 8
  %108 = getelementptr inbounds nuw %struct.auth_credential_t, ptr %107, i32 0, i32 6
  %109 = load i32, ptr %108, align 4
  %110 = icmp eq i32 %109, 99
  br i1 %110, label %111, label %112

111:                                              ; preds = %106
  store i32 14, ptr %9, align 4
  br label %122

112:                                              ; preds = %106
  %113 = load ptr, ptr %5, align 8
  %114 = getelementptr inbounds nuw %struct.auth_credential_t, ptr %113, i32 0, i32 7
  %115 = load i32, ptr %114, align 8
  %116 = icmp eq i32 %115, 99
  br i1 %116, label %117, label %118

117:                                              ; preds = %112
  store i32 14, ptr %9, align 4
  br label %121

118:                                              ; preds = %112
  %119 = load ptr, ptr %5, align 8
  %120 = getelementptr inbounds nuw %struct.auth_credential_t, ptr %119, i32 0, i32 5
  store i8 1, ptr %120, align 8
  br label %121

121:                                              ; preds = %118, %117
  br label %122

122:                                              ; preds = %121, %111
  br label %123

123:                                              ; preds = %122, %94, %58
  %124 = load ptr, ptr %10, align 8
  call void @munge_ctx_destroy(ptr noundef %124)
  %125 = load i32, ptr %9, align 4
  %126 = icmp ne i32 %125, 0
  %127 = select i1 %126, i32 -1, i32 0
  store i32 %127, ptr %4, align 4
  store i32 1, ptr %11, align 4
  br label %128

128:                                              ; preds = %123, %35, %25, %21, %15
  call void @llvm.lifetime.end.p0(i64 8, ptr %10) #9
  call void @llvm.lifetime.end.p0(i64 4, ptr %9) #9
  call void @llvm.lifetime.end.p0(i64 4, ptr %8) #9
  %129 = load i32, ptr %4, align 4
  ret i32 %129
}