; Function Attrs: nounwind uwtable
define internal fastcc range(i32 -1, 1) i32 @_decode_cred(ptr noundef nonnull %0, ptr noundef %1, i1 noundef zeroext %2) unnamed_addr #0 {
  %4 = alloca [256 x i8], align 16
  %5 = alloca i64, align 8
  %6 = alloca i64, align 8
  %7 = getelementptr inbounds nuw i8, ptr %0, i64 24
  %8 = load i8, ptr %7, align 8, !range !8, !noundef !9
  %9 = trunc nuw i8 %8 to i1
  br i1 %9, label %84, label %10

10:                                               ; preds = %3
  %11 = tail call ptr @munge_ctx_create() #13
  %12 = icmp eq ptr %11, null
  br i1 %12, label %13, label %15

13:                                               ; preds = %10
  %14 = tail call i32 (ptr, ...) @slurm_error(ptr noundef nonnull @.str.4) #13
  br label %84

15:                                               ; preds = %10
  %.not = icmp eq ptr %1, null
  br i1 %.not, label %20, label %16

16:                                               ; preds = %15
  %17 = tail call i32 (ptr, i32, ...) @munge_ctx_set(ptr noundef nonnull %11, i32 noundef 8, ptr noundef nonnull %1) #13
  %.not35 = icmp eq i32 %17, 0
  br i1 %.not35, label %20, label %18

18:                                               ; preds = %16
  %19 = tail call i32 (ptr, ...) @slurm_error(ptr noundef nonnull @.str.18) #13
  tail call void @munge_ctx_destroy(ptr noundef nonnull %11) #13
  br label %84

20:                                               ; preds = %16, %15
  %21 = getelementptr inbounds nuw i8, ptr %0, i64 8
  %22 = getelementptr inbounds nuw i8, ptr %0, i64 40
  %23 = getelementptr inbounds nuw i8, ptr %0, i64 48
  %24 = getelementptr inbounds nuw i8, ptr %0, i64 28
  %25 = getelementptr inbounds nuw i8, ptr %0, i64 32
  %26 = load ptr, ptr %21, align 8
  %27 = tail call i32 @munge_decode(ptr noundef %26, ptr noundef nonnull %11, ptr noundef nonnull %22, ptr noundef nonnull %23, ptr noundef nonnull %24, ptr noundef nonnull %25) #13
  %.not3651 = icmp eq i32 %27, 0
  br i1 %.not3651, label %._crit_edge, label %.lr.ph

.lr.ph:                                           ; preds = %20
  br i1 %2, label %.loopexit, label %.lr.ph.split

.lr.ph.split:                                     ; preds = %.lr.ph, %37
  %28 = phi i32 [ %40, %37 ], [ %27, %.lr.ph ]
  %.03052 = phi i32 [ %31, %37 ], [ 20, %.lr.ph ]
  %29 = icmp eq i32 %28, 6
  br i1 %29, label %30, label %.critedge.loopexit

30:                                               ; preds = %.lr.ph.split
  %31 = add nsw i32 %.03052, -1
  %.not38 = icmp eq i32 %.03052, 0
  br i1 %.not38, label %41, label %32

32:                                               ; preds = %30
  %33 = tail call i32 @slurm_get_log_level() #13
  %34 = icmp sgt i32 %33, 4
  br i1 %34, label %35, label %37

35:                                               ; preds = %32
  %36 = tail call ptr @munge_ctx_strerror(ptr noundef nonnull %11) #13
  tail call void (i32, ptr, ...) @slurm_log_var(i32 noundef 5, ptr noundef nonnull @.str.19, ptr noundef nonnull @plugin_type, ptr noundef nonnull @__func__._decode_cred, ptr noundef %36) #13
  br label %37

37:                                               ; preds = %35, %32
  %38 = tail call i32 @usleep(i32 noundef 100000) #13
  %39 = load ptr, ptr %21, align 8
  %40 = tail call i32 @munge_decode(ptr noundef %39, ptr noundef nonnull %11, ptr noundef nonnull %22, ptr noundef nonnull %23, ptr noundef nonnull %24, ptr noundef nonnull %25) #13
  %.not36 = icmp eq i32 %40, 0
  br i1 %.not36, label %._crit_edge, label %.lr.ph.split

41:                                               ; preds = %30
  %42 = tail call i32 (ptr, ...) @slurm_error(ptr noundef nonnull @.str.10) #13
  br label %.critedge

.critedge.loopexit:                               ; preds = %.lr.ph.split
  %43 = icmp eq i32 %28, 16
  br label %.critedge

.critedge:                                        ; preds = %.critedge.loopexit, %41
  %44 = phi i1 [ %43, %.critedge.loopexit ], [ false, %41 ]
  %45 = tail call ptr @munge_ctx_strerror(ptr noundef nonnull %11) #13
  %46 = tail call i32 (ptr, ...) @slurm_error(ptr noundef nonnull @.str.20, ptr noundef %45) #13
  call void @llvm.lifetime.start.p0(i64 256, ptr nonnull %4) #13
  call void @llvm.lifetime.start.p0(i64 8, ptr nonnull %5) #13
  call void @llvm.lifetime.start.p0(i64 8, ptr nonnull %6) #13
  %47 = call i32 (ptr, i32, ...) @munge_ctx_get(ptr noundef nonnull %11, i32 noundef 6, ptr noundef nonnull %5) #13
  %.not.i = icmp eq i32 %47, 0
  %48 = call i32 @slurm_get_log_level() #13
  br i1 %.not.i, label %53, label %49

49:                                               ; preds = %.critedge
  %50 = icmp sgt i32 %48, 4
  br i1 %50, label %51, label %57

51:                                               ; preds = %49
  %52 = call ptr @munge_ctx_strerror(ptr noundef nonnull %11) #13
  call void (i32, ptr, ...) @slurm_log_var(i32 noundef 5, ptr noundef nonnull @.str.23, ptr noundef nonnull @plugin_type, ptr noundef nonnull @__func__._print_cred, ptr noundef %52) #13
  br label %57

53:                                               ; preds = %.critedge
  %54 = icmp sgt i32 %48, 2
  br i1 %54, label %55, label %57

55:                                               ; preds = %53
  %56 = call ptr @slurm_ctime2_r(ptr noundef nonnull %5, ptr noundef nonnull %4) #13
  call void (i32, ptr, ...) @slurm_log_var(i32 noundef 3, ptr noundef nonnull @.str.24, ptr noundef nonnull @plugin_type, ptr noundef nonnull @__func__._print_cred, ptr noundef %56) #13
  br label %57

57:                                               ; preds = %55, %53, %51, %49
  %58 = call i32 (ptr, i32, ...) @munge_ctx_get(ptr noundef nonnull %11, i32 noundef 7, ptr noundef nonnull %6) #13
  %.not5.i = icmp eq i32 %58, 0
  %59 = call i32 @slurm_get_log_level() #13
  br i1 %.not5.i, label %64, label %60

60:                                               ; preds = %57
  %61 = icmp sgt i32 %59, 4
  br i1 %61, label %62, label %_print_cred.exit

62:                                               ; preds = %60
  %63 = call ptr @munge_ctx_strerror(ptr noundef nonnull %11) #13
  call void (i32, ptr, ...) @slurm_log_var(i32 noundef 5, ptr noundef nonnull @.str.25, ptr noundef nonnull @plugin_type, ptr noundef nonnull @__func__._print_cred, ptr noundef %63) #13
  br label %_print_cred.exit

64:                                               ; preds = %57
  %65 = icmp sgt i32 %59, 2
  br i1 %65, label %66, label %_print_cred.exit

66:                                               ; preds = %64
  %67 = call ptr @slurm_ctime2_r(ptr noundef nonnull %6, ptr noundef nonnull %4) #13
  call void (i32, ptr, ...) @slurm_log_var(i32 noundef 3, ptr noundef nonnull @.str.26, ptr noundef nonnull @plugin_type, ptr noundef nonnull @__func__._print_cred, ptr noundef %67) #13
  br label %_print_cred.exit

_print_cred.exit:                                 ; preds = %60, %62, %64, %66
  call void @llvm.lifetime.end.p0(i64 8, ptr nonnull %6) #13
  call void @llvm.lifetime.end.p0(i64 8, ptr nonnull %5) #13
  call void @llvm.lifetime.end.p0(i64 256, ptr nonnull %4) #13
  br i1 %44, label %68, label %70

68:                                               ; preds = %_print_cred.exit
  %69 = call i32 (ptr, ...) @slurm_error(ptr noundef nonnull @.str.21) #13
  br label %70

70:                                               ; preds = %68, %_print_cred.exit
  %71 = tail call ptr @__errno_location() #14
  store i32 6000, ptr %71, align 4
  br label %.loopexit

._crit_edge:                                      ; preds = %37, %20
  %72 = getelementptr inbounds nuw i8, ptr %0, i64 20
  %73 = tail call i32 (ptr, i32, ...) @munge_ctx_get(ptr noundef nonnull %11, i32 noundef 5, ptr noundef nonnull %72) #13
  %.not37 = icmp eq i32 %73, 0
  br i1 %.not37, label %77, label %74

74:                                               ; preds = %._crit_edge
  %75 = tail call ptr @munge_ctx_strerror(ptr noundef nonnull %11) #13
  %76 = tail call i32 (ptr, ...) @slurm_error(ptr noundef nonnull @.str.22, ptr noundef %75) #13
  br label %77

77:                                               ; preds = %74, %._crit_edge
  %78 = load i32, ptr %24, align 4
  %79 = icmp eq i32 %78, 99
  br i1 %79, label %.loopexit, label %80

80:                                               ; preds = %77
  %81 = load i32, ptr %25, align 8
  %82 = icmp eq i32 %81, 99
  br i1 %82, label %.loopexit, label %83

83:                                               ; preds = %80
  store i8 1, ptr %7, align 8
  br label %.loopexit

.loopexit:                                        ; preds = %.lr.ph, %80, %77, %83, %70
  %not..not39 = phi i32 [ -1, %70 ], [ 0, %83 ], [ -1, %77 ], [ -1, %80 ], [ -1, %.lr.ph ]
  call void @munge_ctx_destroy(ptr noundef nonnull %11) #13
  br label %84

84:                                               ; preds = %3, %.loopexit, %18, %13
  %.0 = phi i32 [ -1, %13 ], [ -1, %18 ], [ %not..not39, %.loopexit ], [ 0, %3 ]
  ret i32 %.0
}